; Function Attrs: cold mustprogress nofree norecurse nosync nounwind optsize willreturn memory(write, argmem: readwrite, inaccessiblemem: none) uwtable
define internal noundef i32 @vaapi_encode_vp9_get_encoder_caps(ptr noundef readonly captures(none) %0) #2 {
  %2 = getelementptr inbounds nuw i8, ptr %0, i64 32
  %3 = load ptr, ptr %2, align 8, !tbaa !4
  %4 = getelementptr inbounds nuw i8, ptr %0, i64 112
  %5 = load i32, ptr %4, align 8, !tbaa !48
  %6 = add nsw i32 %5, 63
  %7 = and i32 %6, -64
  %8 = getelementptr inbounds nuw i8, ptr %3, i64 32
  store i32 %7, ptr %8, align 8, !tbaa !49
  %9 = getelementptr inbounds nuw i8, ptr %0, i64 116
  %10 = load i32, ptr %9, align 4, !tbaa !50
  %11 = add nsw i32 %10, 63
  %12 = and i32 %11, -64
  %13 = getelementptr inbounds nuw i8, ptr %3, i64 36
  store i32 %12, ptr %13, align 4, !tbaa !51
  ret i32 0
}